target datalayout = "e-m:e-p270:32:32-p271:32:32-p272:64:64-i64:64-i128:128-f80:128-n8:16:32:64-S128"
target triple = "x86_64-pc-linux-gnu"

%struct.strbuf = type { i64, i64, ptr }
%struct.apply_state = type { ptr, %struct.lock_file, i32, i32, i32, i32, i32, i32, i32, i32, i32, i32, i32, i32, i32, i32, i32, i32, i32, ptr, ptr, i32, i32, ptr, ptr, i32, %struct.strbuf, i32, i32, i32, %struct.string_list, i32, i32, %struct.strset, %struct.strset, i32, i32, %struct.string_list, ptr, ptr, i32, i32, ptr, i32, i32, i32 }
%struct.lock_file = type { ptr }
%struct.strset = type { %struct.strmap }
%struct.strmap = type { %struct.hashmap, ptr, i8 }
%struct.hashmap = type { ptr, ptr, ptr, i32, i32, i32, i32, i8 }
%struct.string_list = type { ptr, i64, i64, i8, ptr }
%struct.startup_info = type { i32, ptr, ptr }

@startup_info = external global ptr, align 8
@.str = private unnamed_addr constant [46 x i8] c"options '%s' and '%s' cannot be used together\00", align 1
@.str.1 = private unnamed_addr constant [9 x i8] c"--reject\00", align 1
@.str.2 = private unnamed_addr constant [7 x i8] c"--3way\00", align 1
@.str.3 = private unnamed_addr constant [26 x i8] c"'%s' outside a repository\00", align 1
@.str.4 = private unnamed_addr constant [8 x i8] c"--index\00", align 1
@.str.5 = private unnamed_addr constant [9 x i8] c"--cached\00", align 1
@.str.23 = private unnamed_addr constant [1 x i8] zeroinitializer, align 1
@git_gettext_enabled = external global i32, align 4

; Function Attrs: inlinehint nounwind uwtable
define internal i32 @const_error() #3 {
  ret i32 -1
}

; Function Attrs: inlinehint nounwind uwtable
define internal ptr @_(ptr noundef %0) #3 {
  %2 = alloca ptr, align 8
  %3 = alloca ptr, align 8
  store ptr %0, ptr %3, align 8, !tbaa !11
  %4 = load ptr, ptr %3, align 8, !tbaa !11
  %5 = load i8, ptr %4, align 1, !tbaa !57
  %6 = icmp ne i8 %5, 0
  br i1 %6, label %8, label %7

7:                                                ; preds = %1
  store ptr @.str.23, ptr %2, align 8
  br label %16

8:                                                ; preds = %1
  %9 = load i32, ptr @git_gettext_enabled, align 4, !tbaa !39
  %10 = icmp ne i32 %9, 0
  br i1 %10, label %13, label %11

11:                                               ; preds = %8
  %12 = load ptr, ptr %3, align 8, !tbaa !11
  store ptr %12, ptr %2, align 8
  br label %16

13:                                               ; preds = %8
  %14 = load ptr, ptr %3, align 8, !tbaa !11
  %15 = call ptr @dcgettext(ptr noundef null, ptr noundef %14, i32 noundef 5) #12
  store ptr %15, ptr %2, align 8
  br label %16

16:                                               ; preds = %13, %11, %7
  %17 = load ptr, ptr %2, align 8
  ret ptr %17
}

; Function Attrs: nounwind uwtable
define dso_local i32 @check_apply_state(ptr noundef %0, i32 noundef %1) #0 {
  %3 = alloca i32, align 4
  %4 = alloca ptr, align 8
  %5 = alloca i32, align 4
  %6 = alloca i32, align 4
  %7 = alloca i32, align 4
  store ptr %0, ptr %4, align 8, !tbaa !4
  store i32 %1, ptr %5, align 4, !tbaa !39
  call void @llvm.lifetime.start.p0(i64 4, ptr %6) #12
  %8 = load ptr, ptr @startup_info, align 8, !tbaa !40
  %9 = getelementptr inbounds nuw %struct.startup_info, ptr %8, i32 0, i32 0
  %10 = load i32, ptr %9, align 8, !tbaa !42
  %11 = icmp ne i32 %10, 0
  %12 = xor i1 %11, true
  %13 = zext i1 %12 to i32
  store i32 %13, ptr %6, align 4, !tbaa !39
  %14 = load ptr, ptr %4, align 8, !tbaa !4
  %15 = getelementptr inbounds nuw %struct.apply_state, ptr %14, i32 0, i32 13
  %16 = load i32, ptr %15, align 4, !tbaa !44
  %17 = icmp ne i32 %16, 0
  br i1 %17, label %18, label %27

18:                                               ; preds = %2
  %19 = load ptr, ptr %4, align 8, !tbaa !4
  %20 = getelementptr inbounds nuw %struct.apply_state, ptr %19, i32 0, i32 15
  %21 = load i32, ptr %20, align 4, !tbaa !45
  %22 = icmp ne i32 %21, 0
  br i1 %22, label %23, label %27

23:                                               ; preds = %18
  %24 = call ptr @_(ptr noundef @.str)
  %25 = call i32 (ptr, ...) @error(ptr noundef %24, ptr noundef @.str.1, ptr noundef @.str.2)
  %26 = call i32 @const_error()
  store i32 %26, ptr %3, align 4
  store i32 1, ptr %7, align 4
  br label %153

27:                                               ; preds = %18, %2
  %28 = load ptr, ptr %4, align 8, !tbaa !4
  %29 = getelementptr inbounds nuw %struct.apply_state, ptr %28, i32 0, i32 15
  %30 = load i32, ptr %29, align 4, !tbaa !45
  %31 = icmp ne i32 %30, 0
  br i1 %31, label %32, label %42

32:                                               ; preds = %27
  %33 = load i32, ptr %6, align 4, !tbaa !39
  %34 = icmp ne i32 %33, 0
  br i1 %34, label %35, label %39

35:                                               ; preds = %32
  %36 = call ptr @_(ptr noundef @.str.3)
  %37 = call i32 (ptr, ...) @error(ptr noundef %36, ptr noundef @.str.2)
  %38 = call i32 @const_error()
  store i32 %38, ptr %3, align 4
  store i32 1, ptr %7, align 4
  br label %153

39:                                               ; preds = %32
  %40 = load ptr, ptr %4, align 8, !tbaa !4
  %41 = getelementptr inbounds nuw %struct.apply_state, ptr %40, i32 0, i32 5
  store i32 1, ptr %41, align 4, !tbaa !46
  br label %42

42:                                               ; preds = %39, %27
  %43 = load ptr, ptr %4, align 8, !tbaa !4
  %44 = getelementptr inbounds nuw %struct.apply_state, ptr %43, i32 0, i32 13
  %45 = load i32, ptr %44, align 4, !tbaa !44
  %46 = icmp ne i32 %45, 0
  br i1 %46, label %47, label %58

47:                                               ; preds = %42
  %48 = load ptr, ptr %4, align 8, !tbaa !4
  %49 = getelementptr inbounds nuw %struct.apply_state, ptr %48, i32 0, i32 2
  store i32 1, ptr %49, align 8, !tbaa !28
  %50 = load ptr, ptr %4, align 8, !tbaa !4
  %51 = getelementptr inbounds nuw %struct.apply_state, ptr %50, i32 0, i32 21
  %52 = load i32, ptr %51, align 8, !tbaa !47
  %53 = icmp eq i32 %52, 0
  br i1 %53, label %54, label %57

54:                                               ; preds = %47
  %55 = load ptr, ptr %4, align 8, !tbaa !4
  %56 = getelementptr inbounds nuw %struct.apply_state, ptr %55, i32 0, i32 21
  store i32 1, ptr %56, align 8, !tbaa !47
  br label %57

57:                                               ; preds = %54, %47
  br label %58

58:                                               ; preds = %57, %42
  %59 = load i32, ptr %5, align 4, !tbaa !39
  %60 = icmp ne i32 %59, 0
  br i1 %60, label %89, label %61

61:                                               ; preds = %58
  %62 = load ptr, ptr %4, align 8, !tbaa !4
  %63 = getelementptr inbounds nuw %struct.apply_state, ptr %62, i32 0, i32 8
  %64 = load i32, ptr %63, align 8, !tbaa !48
  %65 = icmp ne i32 %64, 0
  br i1 %65, label %86, label %66

66:                                               ; preds = %61
  %67 = load ptr, ptr %4, align 8, !tbaa !4
  %68 = getelementptr inbounds nuw %struct.apply_state, ptr %67, i32 0, i32 9
  %69 = load i32, ptr %68, align 4, !tbaa !49
  %70 = icmp ne i32 %69, 0
  br i1 %70, label %86, label %71

71:                                               ; preds = %66
  %72 = load ptr, ptr %4, align 8, !tbaa !4
  %73 = getelementptr inbounds nuw %struct.apply_state, ptr %72, i32 0, i32 10
  %74 = load i32, ptr %73, align 8, !tbaa !50
  %75 = icmp ne i32 %74, 0
  br i1 %75, label %86, label %76

76:                                               ; preds = %71
  %77 = load ptr, ptr %4, align 8, !tbaa !4
  %78 = getelementptr inbounds nuw %struct.apply_state, ptr %77, i32 0, i32 4
  %79 = load i32, ptr %78, align 8, !tbaa !51
  %80 = icmp ne i32 %79, 0
  br i1 %80, label %86, label %81

81:                                               ; preds = %76
  %82 = load ptr, ptr %4, align 8, !tbaa !4
  %83 = getelementptr inbounds nuw %struct.apply_state, ptr %82, i32 0, i32 23
  %84 = load ptr, ptr %83, align 8, !tbaa !38
  %85 = icmp ne ptr %84, null
  br i1 %85, label %86, label %89

86:                                               ; preds = %81, %76, %71, %66, %61
  %87 = load ptr, ptr %4, align 8, !tbaa !4
  %88 = getelementptr inbounds nuw %struct.apply_state, ptr %87, i32 0, i32 2
  store i32 0, ptr %88, align 8, !tbaa !28
  br label %89

89:                                               ; preds = %86, %81, %58
  %90 = load ptr, ptr %4, align 8, !tbaa !4
  %91 = getelementptr inbounds nuw %struct.apply_state, ptr %90, i32 0, i32 5
  %92 = load i32, ptr %91, align 4, !tbaa !46
  %93 = icmp ne i32 %92, 0
  br i1 %93, label %94, label %101

94:                                               ; preds = %89
  %95 = load i32, ptr %6, align 4, !tbaa !39
  %96 = icmp ne i32 %95, 0
  br i1 %96, label %97, label %101

97:                                               ; preds = %94
  %98 = call ptr @_(ptr noundef @.str.3)
  %99 = call i32 (ptr, ...) @error(ptr noundef %98, ptr noundef @.str.4)
  %100 = call i32 @const_error()
  store i32 %100, ptr %3, align 4
  store i32 1, ptr %7, align 4
  br label %153

101:                                              ; preds = %94, %89
  %102 = load ptr, ptr %4, align 8, !tbaa !4
  %103 = getelementptr inbounds nuw %struct.apply_state, ptr %102, i32 0, i32 3
  %104 = load i32, ptr %103, align 4, !tbaa !52
  %105 = icmp ne i32 %104, 0
  br i1 %105, label %106, label %116

106:                                              ; preds = %101
  %107 = load i32, ptr %6, align 4, !tbaa !39
  %108 = icmp ne i32 %107, 0
  br i1 %108, label %109, label %113

109:                                              ; preds = %106
  %110 = call ptr @_(ptr noundef @.str.3)
  %111 = call i32 (ptr, ...) @error(ptr noundef %110, ptr noundef @.str.5)
  %112 = call i32 @const_error()
  store i32 %112, ptr %3, align 4
  store i32 1, ptr %7, align 4
  br label %153

113:                                              ; preds = %106
  %114 = load ptr, ptr %4, align 8, !tbaa !4
  %115 = getelementptr inbounds nuw %struct.apply_state, ptr %114, i32 0, i32 5
  store i32 1, ptr %115, align 4, !tbaa !46
  br label %116

116:                                              ; preds = %113, %101
  %117 = load ptr, ptr %4, align 8, !tbaa !4
  %118 = getelementptr inbounds nuw %struct.apply_state, ptr %117, i32 0, i32 7
  %119 = load i32, ptr %118, align 4, !tbaa !53
  %120 = icmp ne i32 %119, 0
  br i1 %120, label %121, label %132

121:                                              ; preds = %116
  %122 = load ptr, ptr %4, align 8, !tbaa !4
  %123 = getelementptr inbounds nuw %struct.apply_state, ptr %122, i32 0, i32 5
  %124 = load i32, ptr %123, align 4, !tbaa !46
  %125 = icmp ne i32 %124, 0
  br i1 %125, label %129, label %126

126:                                              ; preds = %121
  %127 = load i32, ptr %6, align 4, !tbaa !39
  %128 = icmp ne i32 %127, 0
  br i1 %128, label %129, label %132

129:                                              ; preds = %126, %121
  %130 = load ptr, ptr %4, align 8, !tbaa !4
  %131 = getelementptr inbounds nuw %struct.apply_state, ptr %130, i32 0, i32 7
  store i32 0, ptr %131, align 4, !tbaa !53
  br label %132

132:                                              ; preds = %129, %126, %116
  %133 = load ptr, ptr %4, align 8, !tbaa !4
  %134 = getelementptr inbounds nuw %struct.apply_state, ptr %133, i32 0, i32 5
  %135 = load i32, ptr %134, align 4, !tbaa !46
  %136 = icmp ne i32 %135, 0
  br i1 %136, label %137, label %140

137:                                              ; preds = %132
  %138 = load ptr, ptr %4, align 8, !tbaa !4
  %139 = getelementptr inbounds nuw %struct.apply_state, ptr %138, i32 0, i32 17
  store i32 0, ptr %139, align 4, !tbaa !54
  br label %140

140:                                              ; preds = %137, %132
  %141 = load ptr, ptr %4, align 8, !tbaa !4
  %142 = getelementptr inbounds nuw %struct.apply_state, ptr %141, i32 0, i32 21
  %143 = load i32, ptr %142, align 8, !tbaa !47
  %144 = icmp sle i32 %143, -1
  br i1 %144, label %145, label %152

145:                                              ; preds = %140
  %146 = call ptr @get_error_routine()
  %147 = load ptr, ptr %4, align 8, !tbaa !4
  %148 = getelementptr inbounds nuw %struct.apply_state, ptr %147, i32 0, i32 38
  store ptr %146, ptr %148, align 8, !tbaa !55
  %149 = call ptr @get_warn_routine()
  %150 = load ptr, ptr %4, align 8, !tbaa !4
  %151 = getelementptr inbounds nuw %struct.apply_state, ptr %150, i32 0, i32 39
  store ptr %149, ptr %151, align 8, !tbaa !56
  call void @set_error_routine(ptr noundef @mute_routine)
  call void @set_warn_routine(ptr noundef @mute_routine)
  br label %152

152:                                              ; preds = %145, %140
  store i32 0, ptr %3, align 4
  store i32 1, ptr %7, align 4
  br label %153

153:                                              ; preds = %152, %109, %97, %35, %23
  call void @llvm.lifetime.end.p0(i64 4, ptr %6) #12
  %154 = load i32, ptr %3, align 4
  ret i32 %154
}