; Function Attrs: nounwind uwtable
define dso_local range(i32 -1, 1) i32 @check_apply_state(ptr noundef captures(none) %0, i32 noundef %1) local_unnamed_addr #0 {
  %3 = load ptr, ptr @startup_info, align 8, !tbaa !36
  %4 = load i32, ptr %3, align 8, !tbaa !38
  %.not = icmp eq i32 %4, 0
  %5 = getelementptr inbounds nuw i8, ptr %0, i64 60
  %6 = load i32, ptr %5, align 4, !tbaa !40
  %.not33 = icmp eq i32 %6, 0
  %.phi.trans.insert = getelementptr inbounds nuw i8, ptr %0, i64 68
  %.pre = load i32, ptr %.phi.trans.insert, align 4, !tbaa !41
  %7 = icmp eq i32 %.pre, 0
  br i1 %.not33, label %14, label %8

8:                                                ; preds = %2
  br i1 %7, label %23, label %9

9:                                                ; preds = %8
  %10 = load i32, ptr @git_gettext_enabled, align 4, !tbaa !34
  %.not4.i = icmp eq i32 %10, 0
  br i1 %.not4.i, label %_.exit, label %11

11:                                               ; preds = %9
  %12 = tail call ptr @dcgettext(ptr noundef null, ptr noundef nonnull @.str, i32 noundef 5) #21
  br label %_.exit

_.exit:                                           ; preds = %9, %11
  %.0.i = phi ptr [ %12, %11 ], [ @.str, %9 ]
  %13 = tail call i32 (ptr, ...) @error(ptr noundef %.0.i, ptr noundef nonnull @.str.1, ptr noundef nonnull @.str.2) #21
  br label %81

14:                                               ; preds = %2
  br i1 %7, label %.thread58, label %15

15:                                               ; preds = %14
  br i1 %.not, label %16, label %21

16:                                               ; preds = %15
  %17 = load i32, ptr @git_gettext_enabled, align 4, !tbaa !34
  %.not4.i46 = icmp eq i32 %17, 0
  br i1 %.not4.i46, label %_.exit48, label %18

18:                                               ; preds = %16
  %19 = tail call ptr @dcgettext(ptr noundef null, ptr noundef nonnull @.str.3, i32 noundef 5) #21
  br label %_.exit48

_.exit48:                                         ; preds = %16, %18
  %.0.i47 = phi ptr [ %19, %18 ], [ @.str.3, %16 ]
  %20 = tail call i32 (ptr, ...) @error(ptr noundef %.0.i47, ptr noundef nonnull @.str.2) #21
  br label %81

21:                                               ; preds = %15
  %22 = getelementptr inbounds nuw i8, ptr %0, i64 28
  store i32 1, ptr %22, align 4, !tbaa !42
  br label %.thread58

23:                                               ; preds = %8
  %24 = getelementptr inbounds nuw i8, ptr %0, i64 16
  store i32 1, ptr %24, align 8, !tbaa !24
  %25 = getelementptr inbounds nuw i8, ptr %0, i64 104
  %26 = load i32, ptr %25, align 8, !tbaa !43
  %27 = icmp eq i32 %26, 0
  br i1 %27, label %28, label %.thread58

28:                                               ; preds = %23
  store i32 1, ptr %25, align 8, !tbaa !43
  br label %.thread58

.thread58:                                        ; preds = %14, %21, %23, %28
  %.not37 = icmp eq i32 %1, 0
  br i1 %.not37, label %29, label %46

29:                                               ; preds = %.thread58
  %30 = getelementptr inbounds nuw i8, ptr %0, i64 40
  %31 = load i32, ptr %30, align 8, !tbaa !44
  %.not38 = icmp eq i32 %31, 0
  br i1 %.not38, label %32, label %44

32:                                               ; preds = %29
  %33 = getelementptr inbounds nuw i8, ptr %0, i64 44
  %34 = load i32, ptr %33, align 4, !tbaa !45
  %.not39 = icmp eq i32 %34, 0
  br i1 %.not39, label %35, label %44

35:                                               ; preds = %32
  %36 = getelementptr inbounds nuw i8, ptr %0, i64 48
  %37 = load i32, ptr %36, align 8, !tbaa !46
  %.not40 = icmp eq i32 %37, 0
  br i1 %.not40, label %38, label %44

38:                                               ; preds = %35
  %39 = getelementptr inbounds nuw i8, ptr %0, i64 24
  %40 = load i32, ptr %39, align 8, !tbaa !47
  %.not41 = icmp eq i32 %40, 0
  br i1 %.not41, label %41, label %44

41:                                               ; preds = %38
  %42 = getelementptr inbounds nuw i8, ptr %0, i64 112
  %43 = load ptr, ptr %42, align 8, !tbaa !35
  %.not42 = icmp eq ptr %43, null
  br i1 %.not42, label %46, label %44

44:                                               ; preds = %41, %38, %35, %32, %29
  %45 = getelementptr inbounds nuw i8, ptr %0, i64 16
  store i32 0, ptr %45, align 8, !tbaa !24
  br label %46

46:                                               ; preds = %44, %41, %.thread58
  %47 = getelementptr inbounds nuw i8, ptr %0, i64 28
  %48 = load i32, ptr %47, align 4, !tbaa !42
  %49 = icmp ne i32 %48, 0
  %or.cond = select i1 %49, i1 %.not, i1 false
  br i1 %or.cond, label %50, label %55

50:                                               ; preds = %46
  %51 = load i32, ptr @git_gettext_enabled, align 4, !tbaa !34
  %.not4.i49 = icmp eq i32 %51, 0
  br i1 %.not4.i49, label %_.exit51, label %52

52:                                               ; preds = %50
  %53 = tail call ptr @dcgettext(ptr noundef null, ptr noundef nonnull @.str.3, i32 noundef 5) #21
  br label %_.exit51

_.exit51:                                         ; preds = %50, %52
  %.0.i50 = phi ptr [ %53, %52 ], [ @.str.3, %50 ]
  %54 = tail call i32 (ptr, ...) @error(ptr noundef %.0.i50, ptr noundef nonnull @.str.4) #21
  br label %81

55:                                               ; preds = %46
  %56 = getelementptr inbounds nuw i8, ptr %0, i64 20
  %57 = load i32, ptr %56, align 4, !tbaa !48
  %.not43 = icmp eq i32 %57, 0
  br i1 %.not43, label %65, label %58

58:                                               ; preds = %55
  br i1 %.not, label %59, label %64

59:                                               ; preds = %58
  %60 = load i32, ptr @git_gettext_enabled, align 4, !tbaa !34
  %.not4.i52 = icmp eq i32 %60, 0
  br i1 %.not4.i52, label %_.exit54, label %61

61:                                               ; preds = %59
  %62 = tail call ptr @dcgettext(ptr noundef null, ptr noundef nonnull @.str.3, i32 noundef 5) #21
  br label %_.exit54

_.exit54:                                         ; preds = %59, %61
  %.0.i53 = phi ptr [ %62, %61 ], [ @.str.3, %59 ]
  %63 = tail call i32 (ptr, ...) @error(ptr noundef %.0.i53, ptr noundef nonnull @.str.5) #21
  br label %81

64:                                               ; preds = %58
  store i32 1, ptr %47, align 4, !tbaa !42
  br label %65

65:                                               ; preds = %64, %55
  %.pr = phi i32 [ 1, %64 ], [ %48, %55 ]
  %66 = getelementptr inbounds nuw i8, ptr %0, i64 36
  %67 = load i32, ptr %66, align 4, !tbaa !49
  %.not44 = icmp eq i32 %67, 0
  br i1 %.not44, label %thread-pre-split, label %68

68:                                               ; preds = %65
  %69 = icmp ne i32 %.pr, 0
  %or.cond3 = select i1 %69, i1 true, i1 %.not
  br i1 %or.cond3, label %70, label %.thread

70:                                               ; preds = %68
  store i32 0, ptr %66, align 4, !tbaa !49
  br label %thread-pre-split

thread-pre-split:                                 ; preds = %65, %70
  %.not45 = icmp eq i32 %.pr, 0
  br i1 %.not45, label %.thread, label %71

71:                                               ; preds = %thread-pre-split
  %72 = getelementptr inbounds nuw i8, ptr %0, i64 76
  store i32 0, ptr %72, align 4, !tbaa !50
  br label %.thread

.thread:                                          ; preds = %68, %71, %thread-pre-split
  %73 = getelementptr inbounds nuw i8, ptr %0, i64 104
  %74 = load i32, ptr %73, align 8, !tbaa !43
  %75 = icmp slt i32 %74, 0
  br i1 %75, label %76, label %81

76:                                               ; preds = %.thread
  %77 = tail call ptr @get_error_routine() #21
  %78 = getelementptr inbounds nuw i8, ptr %0, i64 400
  store ptr %77, ptr %78, align 8, !tbaa !51
  %79 = tail call ptr @get_warn_routine() #21
  %80 = getelementptr inbounds nuw i8, ptr %0, i64 408
  store ptr %79, ptr %80, align 8, !tbaa !52
  tail call void @set_error_routine(ptr noundef nonnull @mute_routine) #21
  tail call void @set_warn_routine(ptr noundef nonnull @mute_routine) #21
  br label %81

81:                                               ; preds = %.thread, %76, %_.exit54, %_.exit51, %_.exit48, %_.exit
  %.0 = phi i32 [ -1, %_.exit ], [ -1, %_.exit48 ], [ -1, %_.exit51 ], [ -1, %_.exit54 ], [ 0, %76 ], [ 0, %.thread ]
  ret i32 %.0
}